target datalayout = "e-m:e-p270:32:32-p271:32:32-p272:64:64-i64:64-i128:128-f80:128-n8:16:32:64-S128"
target triple = "x86_64-pc-linux-gnu"

; Function Attrs: nounwind uwtable
define hidden i32 @BN_from_montgomery(ptr noundef %0, ptr noundef %1, ptr noundef %2, ptr noundef %3) #0 {
  %5 = alloca ptr, align 8
  %6 = alloca ptr, align 8
  %7 = alloca ptr, align 8
  %8 = alloca ptr, align 8
  %9 = alloca i32, align 4
  %10 = alloca ptr, align 8
  store ptr %0, ptr %5, align 8, !tbaa !13
  store ptr %1, ptr %6, align 8, !tbaa !13
  store ptr %2, ptr %7, align 8, !tbaa !6
  store ptr %3, ptr %8, align 8, !tbaa !15
  call void @llvm.lifetime.start.p0(i64 4, ptr %9) #6
  store i32 0, ptr %9, align 4, !tbaa !17
  call void @llvm.lifetime.start.p0(i64 8, ptr %10) #6
  %11 = load ptr, ptr %8, align 8, !tbaa !15
  call void @BN_CTX_start(ptr noundef %11)
  %12 = load ptr, ptr %8, align 8, !tbaa !15
  %13 = call ptr @BN_CTX_get(ptr noundef %12)
  store ptr %13, ptr %10, align 8, !tbaa !13
  %14 = load ptr, ptr %10, align 8, !tbaa !13
  %15 = icmp eq ptr %14, null
  br i1 %15, label %21, label %16

16:                                               ; preds = %4
  %17 = load ptr, ptr %10, align 8, !tbaa !13
  %18 = load ptr, ptr %6, align 8, !tbaa !13
  %19 = call ptr @BN_copy(ptr noundef %17, ptr noundef %18)
  %20 = icmp ne ptr %19, null
  br i1 %20, label %22, label %21

21:                                               ; preds = %16, %4
  br label %27

22:                                               ; preds = %16
  %23 = load ptr, ptr %5, align 8, !tbaa !13
  %24 = load ptr, ptr %10, align 8, !tbaa !13
  %25 = load ptr, ptr %7, align 8, !tbaa !6
  %26 = call i32 @BN_from_montgomery_word(ptr noundef %23, ptr noundef %24, ptr noundef %25)
  store i32 %26, ptr %9, align 4, !tbaa !17
  br label %27

27:                                               ; preds = %22, %21
  %28 = load ptr, ptr %8, align 8, !tbaa !15
  call void @BN_CTX_end(ptr noundef %28)
  %29 = load i32, ptr %9, align 4, !tbaa !17
  call void @llvm.lifetime.end.p0(i64 8, ptr %10) #6
  call void @llvm.lifetime.end.p0(i64 4, ptr %9) #6
  ret i32 %29
}