; Function Attrs: nounwind uwtable
define hidden range(i32 0, 2) i32 @BN_from_montgomery(ptr noundef %0, ptr noundef %1, ptr noundef readonly captures(none) %2, ptr noundef %3) local_unnamed_addr #0 {
  tail call void @BN_CTX_start(ptr noundef %3) #6
  %5 = tail call ptr @BN_CTX_get(ptr noundef %3) #6
  %6 = icmp eq ptr %5, null
  br i1 %6, label %11, label %7

7:                                                ; preds = %4
  %8 = tail call ptr @BN_copy(ptr noundef nonnull %5, ptr noundef %1) #6
  %.not = icmp eq ptr %8, null
  br i1 %.not, label %11, label %9

9:                                                ; preds = %7
  %10 = tail call fastcc i32 @BN_from_montgomery_word(ptr noundef %0, ptr noundef %5, ptr noundef %2)
  br label %11

11:                                               ; preds = %4, %7, %9
  %.0 = phi i32 [ 0, %4 ], [ %10, %9 ], [ 0, %7 ]
  tail call void @BN_CTX_end(ptr noundef %3) #6
  ret i32 %.0
}